target datalayout = "e-m:e-p270:32:32-p271:32:32-p272:64:64-i64:64-i128:128-f80:128-n8:16:32:64-S128"
target triple = "x86_64-pc-linux-gnu"

%struct.Vmem = type { ptr, i64, i64 }
%union.SourceSpan = type { i64 }
%struct.Expr_ = type { ptr, %union.SourceSpan, i16, %union.anon.61 }
%union.anon.61 = type { %struct.ExprAnySwitch }
%struct.ExprAnySwitch = type { i8, %union.anon.63 }
%union.anon.63 = type { %struct.anon.64 }
%struct.anon.64 = type { ptr, %union.SourceSpan, ptr }
%struct.Type_ = type { i32, ptr, ptr, ptr, %union.anon.86, ptr, ptr, %union.anon.88 }
%union.anon.86 = type { ptr }
%union.anon.88 = type { %struct.TypeFunction }
%struct.TypeFunction = type { ptr, ptr, ptr }
%struct.ExprSubscript = type { i32, %struct.Range }
%struct.Range = type { i8, i32, i32 }
%struct.TypeArray = type { ptr, i32 }
%struct.ExprSwizzle = type { i32, ptr }

@expr_arena = external global %struct.Vmem, align 8
@type_usz = external global ptr, align 8
@.str.308 = private unnamed_addr constant [60 x i8] c"The '%c' component is not present in a vector of length %d.\00", align 1

; Function Attrs: nounwind uwtable
define internal i32 @exprid(ptr noundef %0) #0 {
  %2 = alloca ptr, align 8
  store ptr %0, ptr %2, align 8
  %3 = load ptr, ptr %2, align 8
  %4 = load ptr, ptr @expr_arena, align 8
  %5 = ptrtoint ptr %3 to i64
  %6 = ptrtoint ptr %4 to i64
  %7 = sub i64 %5, %6
  %8 = sdiv exact i64 %7, 56
  %9 = trunc i64 %8 to i32
  ret i32 %9
}

; Function Attrs: nounwind uwtable
define internal zeroext i1 @sema_expr_analyse_swizzle(ptr noundef %0, ptr noundef %1, ptr noundef %2, ptr noundef %3, ptr noundef %4, i32 noundef %5) #0 {
  %7 = alloca i1, align 1
  %8 = alloca ptr, align 8
  %9 = alloca ptr, align 8
  %10 = alloca ptr, align 8
  %11 = alloca ptr, align 8
  %12 = alloca ptr, align 8
  %13 = alloca i32, align 4
  %14 = alloca i32, align 4
  %15 = alloca ptr, align 8
  %16 = alloca i32, align 4
  %17 = alloca i32, align 4
  %18 = alloca %struct.ExprSubscript, align 4
  %19 = alloca ptr, align 8
  %20 = alloca %struct.ExprSwizzle, align 8
  store ptr %0, ptr %8, align 8
  store ptr %1, ptr %9, align 8
  store ptr %2, ptr %10, align 8
  store ptr %3, ptr %11, align 8
  store ptr %4, ptr %12, align 8
  store i32 %5, ptr %13, align 4
  %21 = load ptr, ptr %11, align 8
  %22 = getelementptr inbounds %struct.Type_, ptr %21, i32 0, i32 7
  %23 = getelementptr inbounds %struct.TypeArray, ptr %22, i32 0, i32 1
  %24 = load i32, ptr %23, align 8
  store i32 %24, ptr %14, align 4
  %25 = load ptr, ptr %10, align 8
  %26 = getelementptr inbounds %struct.Expr_, ptr %25, i32 0, i32 0
  %27 = load ptr, ptr %26, align 8
  %28 = call ptr @type_get_indexed_type(ptr noundef %27)
  store ptr %28, ptr %15, align 8
  store i32 0, ptr %17, align 4
  br label %29

29:                                               ; preds = %57, %6
  %30 = load i32, ptr %17, align 4
  %31 = load i32, ptr %13, align 4
  %32 = icmp ult i32 %30, %31
  br i1 %32, label %33, label %60

33:                                               ; preds = %29
  %34 = load ptr, ptr %12, align 8
  %35 = getelementptr inbounds i8, ptr %34, i64 0
  %36 = load i8, ptr %35, align 1
  %37 = sext i8 %36 to i32
  %38 = add nsw i32 %37, 3
  %39 = sub nsw i32 %38, 119
  %40 = srem i32 %39, 4
  store i32 %40, ptr %16, align 4
  %41 = load i32, ptr %16, align 4
  %42 = load i32, ptr %14, align 4
  %43 = icmp uge i32 %41, %42
  br i1 %43, label %44, label %56

44:                                               ; preds = %33
  %45 = load ptr, ptr %9, align 8
  %46 = getelementptr inbounds %struct.Expr_, ptr %45, i32 0, i32 1
  %47 = load ptr, ptr %12, align 8
  %48 = load i32, ptr %17, align 4
  %49 = zext i32 %48 to i64
  %50 = getelementptr inbounds i8, ptr %47, i64 %49
  %51 = load i8, ptr %50, align 1
  %52 = sext i8 %51 to i32
  %53 = load i32, ptr %14, align 4
  %54 = getelementptr inbounds %union.SourceSpan, ptr %46, i32 0, i32 0
  %55 = load i64, ptr %54, align 8
  call void (i64, ptr, ...) @sema_error_at(i64 %55, ptr noundef @.str.308, i32 noundef %52, i32 noundef %53)
  store i1 false, ptr %7, align 1
  br label %127

56:                                               ; preds = %33
  br label %57

57:                                               ; preds = %56
  %58 = load i32, ptr %17, align 4
  %59 = add i32 %58, 1
  store i32 %59, ptr %17, align 4
  br label %29, !llvm.loop !54

60:                                               ; preds = %29
  %61 = load i32, ptr %13, align 4
  %62 = icmp eq i32 %61, 1
  br i1 %62, label %63, label %108

63:                                               ; preds = %60
  %64 = load ptr, ptr %9, align 8
  %65 = getelementptr inbounds %struct.Expr_, ptr %64, i32 0, i32 2
  %66 = load i16, ptr %65, align 8
  %67 = and i16 %66, -256
  %68 = or i16 %67, 53
  store i16 %68, ptr %65, align 8
  %69 = load ptr, ptr %9, align 8
  %70 = getelementptr inbounds %struct.Expr_, ptr %69, i32 0, i32 3
  %71 = getelementptr inbounds %struct.ExprSubscript, ptr %18, i32 0, i32 0
  %72 = load ptr, ptr %10, align 8
  %73 = call i32 @exprid(ptr noundef %72)
  store i32 %73, ptr %71, align 4
  %74 = getelementptr inbounds %struct.ExprSubscript, ptr %18, i32 0, i32 1
  %75 = load i8, ptr %74, align 4
  %76 = and i8 %75, -2
  %77 = or i8 %76, 0
  store i8 %77, ptr %74, align 4
  %78 = load i8, ptr %74, align 4
  %79 = and i8 %78, -3
  %80 = or i8 %79, 0
  store i8 %80, ptr %74, align 4
  %81 = load i8, ptr %74, align 4
  %82 = and i8 %81, -5
  %83 = or i8 %82, 0
  store i8 %83, ptr %74, align 4
  %84 = load i8, ptr %74, align 4
  %85 = and i8 %84, -9
  %86 = or i8 %85, 0
  store i8 %86, ptr %74, align 4
  %87 = getelementptr inbounds %struct.Range, ptr %74, i32 0, i32 1
  %88 = load ptr, ptr %9, align 8
  %89 = getelementptr inbounds %struct.Expr_, ptr %88, i32 0, i32 1
  %90 = load ptr, ptr @type_usz, align 8
  %91 = load i32, ptr %16, align 4
  %92 = sext i32 %91 to i64
  %93 = getelementptr inbounds %union.SourceSpan, ptr %89, i32 0, i32 0
  %94 = load i64, ptr %93, align 8
  %95 = call ptr @expr_new_const_int(i64 %94, ptr noundef %90, i64 noundef %92)
  %96 = call i32 @exprid(ptr noundef %95)
  store i32 %96, ptr %87, align 4
  %97 = getelementptr inbounds %struct.Range, ptr %74, i32 0, i32 2
  store i32 0, ptr %97, align 4
  call void @llvm.memcpy.p0.p0.i64(ptr align 8 %70, ptr align 4 %18, i64 16, i1 false)
  %98 = load ptr, ptr %9, align 8
  %99 = getelementptr inbounds %struct.Expr_, ptr %98, i32 0, i32 2
  %100 = load i16, ptr %99, align 8
  %101 = and i16 %100, -3841
  %102 = or i16 %101, 512
  store i16 %102, ptr %99, align 8
  %103 = load ptr, ptr %15, align 8
  %104 = call ptr @type_get_ptr(ptr noundef %103)
  %105 = load ptr, ptr %9, align 8
  %106 = getelementptr inbounds %struct.Expr_, ptr %105, i32 0, i32 0
  store ptr %104, ptr %106, align 8
  %107 = load ptr, ptr %9, align 8
  call void @expr_rewrite_insert_deref(ptr noundef %107)
  store i1 true, ptr %7, align 1
  br label %127

108:                                              ; preds = %60
  %109 = load ptr, ptr %15, align 8
  %110 = load i32, ptr %13, align 4
  %111 = call ptr @type_get_vector(ptr noundef %109, i32 noundef %110)
  store ptr %111, ptr %19, align 8
  %112 = load ptr, ptr %9, align 8
  %113 = getelementptr inbounds %struct.Expr_, ptr %112, i32 0, i32 2
  %114 = load i16, ptr %113, align 8
  %115 = and i16 %114, -256
  %116 = or i16 %115, 52
  store i16 %116, ptr %113, align 8
  %117 = load ptr, ptr %9, align 8
  %118 = getelementptr inbounds %struct.Expr_, ptr %117, i32 0, i32 3
  %119 = getelementptr inbounds %struct.ExprSwizzle, ptr %20, i32 0, i32 0
  %120 = load ptr, ptr %10, align 8
  %121 = call i32 @exprid(ptr noundef %120)
  store i32 %121, ptr %119, align 8
  %122 = getelementptr inbounds %struct.ExprSwizzle, ptr %20, i32 0, i32 1
  %123 = load ptr, ptr %12, align 8
  store ptr %123, ptr %122, align 8
  call void @llvm.memcpy.p0.p0.i64(ptr align 8 %118, ptr align 8 %20, i64 16, i1 false)
  %124 = load ptr, ptr %19, align 8
  %125 = load ptr, ptr %9, align 8
  %126 = getelementptr inbounds %struct.Expr_, ptr %125, i32 0, i32 0
  store ptr %124, ptr %126, align 8
  store i1 true, ptr %7, align 1
  br label %127

127:                                              ; preds = %108, %63, %44
  %128 = load i1, ptr %7, align 1
  ret i1 %128
}