; Function Attrs: nounwind uwtable
define internal fastcc noundef zeroext i1 @sema_expr_analyse_swizzle(ptr noundef %0, ptr noundef %1, i32 %.64.val, ptr noundef %2, i32 noundef %3) unnamed_addr #0 {
  %5 = load ptr, ptr %1, align 8
  %6 = tail call ptr @type_get_indexed_type(ptr noundef %5) #13
  %7 = icmp eq i32 %3, 0
  br i1 %7, label %._crit_edge.thread, label %.lr.ph

.lr.ph:                                           ; preds = %4
  %8 = load i8, ptr %2, align 1
  %9 = sext i8 %8 to i16
  %.lhs.trunc = add nsw i16 %9, -116
  %10 = srem i16 %.lhs.trunc, 4
  %.sext = sext i16 %10 to i32
  %.not = icmp ult i32 %.sext, %.64.val
  br i1 %.not, label %._crit_edge, label %.lr.ph.split

.lr.ph.split:                                     ; preds = %.lr.ph
  %11 = getelementptr inbounds i8, ptr %0, i64 8
  %12 = sext i8 %8 to i32
  %13 = load i64, ptr %11, align 8
  tail call void (i64, ptr, ...) @sema_error_at(i64 %13, ptr noundef nonnull @.str.308, i32 noundef %12, i32 noundef %.64.val) #13
  br label %54

._crit_edge:                                      ; preds = %.lr.ph
  %14 = icmp eq i32 %3, 1
  br i1 %14, label %15, label %._crit_edge.thread

15:                                               ; preds = %._crit_edge
  %16 = sext i16 %10 to i64
  %17 = getelementptr inbounds i8, ptr %0, i64 16
  %18 = load i16, ptr %17, align 8
  %19 = and i16 %18, -256
  %20 = or disjoint i16 %19, 53
  store i16 %20, ptr %17, align 8
  %21 = getelementptr inbounds i8, ptr %0, i64 24
  %22 = load ptr, ptr @expr_arena, align 8
  %23 = ptrtoint ptr %1 to i64
  %24 = ptrtoint ptr %22 to i64
  %25 = sub i64 %23, %24
  %26 = sdiv exact i64 %25, 56
  %27 = trunc i64 %26 to i32
  %28 = getelementptr inbounds i8, ptr %0, i64 8
  %29 = load ptr, ptr @type_usz, align 8
  %30 = load i64, ptr %28, align 8
  %31 = tail call ptr @expr_new_const_int(i64 %30, ptr noundef %29, i64 noundef %16) #13
  %32 = load ptr, ptr @expr_arena, align 8
  %33 = ptrtoint ptr %31 to i64
  %34 = ptrtoint ptr %32 to i64
  %35 = sub i64 %33, %34
  %36 = sdiv exact i64 %35, 56
  %37 = trunc i64 %36 to i32
  store i32 %27, ptr %21, align 8
  %.sroa.23.0..sroa_idx = getelementptr inbounds i8, ptr %0, i64 28
  store i8 0, ptr %.sroa.23.0..sroa_idx, align 4
  %.sroa.107.0..sroa_idx = getelementptr inbounds i8, ptr %0, i64 32
  store i32 %37, ptr %.sroa.107.0..sroa_idx, align 8
  %.sroa.11.0..sroa_idx = getelementptr inbounds i8, ptr %0, i64 36
  store i32 0, ptr %.sroa.11.0..sroa_idx, align 4
  %38 = load i16, ptr %17, align 8
  %39 = and i16 %38, -3841
  %40 = or disjoint i16 %39, 512
  store i16 %40, ptr %17, align 8
  %41 = tail call ptr @type_get_ptr(ptr noundef %6) #13
  store ptr %41, ptr %0, align 8
  tail call void @expr_rewrite_insert_deref(ptr noundef nonnull %0) #13
  br label %54

._crit_edge.thread:                               ; preds = %4, %._crit_edge
  %42 = tail call ptr @type_get_vector(ptr noundef %6, i32 noundef %3) #13
  %43 = getelementptr inbounds i8, ptr %0, i64 16
  %44 = load i16, ptr %43, align 8
  %45 = and i16 %44, -256
  %46 = or disjoint i16 %45, 52
  store i16 %46, ptr %43, align 8
  %47 = getelementptr inbounds i8, ptr %0, i64 24
  %48 = load ptr, ptr @expr_arena, align 8
  %49 = ptrtoint ptr %1 to i64
  %50 = ptrtoint ptr %48 to i64
  %51 = sub i64 %49, %50
  %52 = sdiv exact i64 %51, 56
  %53 = trunc i64 %52 to i32
  store i32 %53, ptr %47, align 8
  %.sroa.21.0..sroa_idx = getelementptr inbounds i8, ptr %0, i64 32
  store ptr %2, ptr %.sroa.21.0..sroa_idx, align 8
  store ptr %42, ptr %0, align 8
  br label %54

54:                                               ; preds = %._crit_edge.thread, %15, %.lr.ph.split
  %55 = phi i1 [ true, %._crit_edge.thread ], [ true, %15 ], [ false, %.lr.ph.split ]
  ret i1 %55
}